; Function Attrs: mustprogress nounwind uwtable
define hidden void @_ZNK13YoungGCTracer27send_promotion_failed_eventERK19PromotionFailedInfo(ptr nocapture noundef nonnull readnone align 8 dereferenceable(84) %0, ptr nocapture noundef nonnull readonly align 8 dereferenceable(48) %1) local_unnamed_addr #1 align 2 {
  %3 = alloca %class.EventPromotionFailed, align 8
  %4 = getelementptr inbounds i8, ptr %3, i64 8
  call void @llvm.memset.p0.i64(ptr noundef nonnull align 8 dereferenceable(11) %4, i8 0, i64 11, i1 false)
  %5 = load i8, ptr getelementptr inbounds (i8, ptr @_ZN15JfrEventSetting19_jvm_event_settingsE, i64 1481), align 1
  %.not.i.not = icmp eq i8 %5, 0
  br i1 %.not.i.not, label %_ZN8JfrEventI20EventPromotionFailedE13should_commitEv.exit, label %6

6:                                                ; preds = %2
  %7 = getelementptr inbounds i8, ptr %3, i64 18
  %8 = getelementptr inbounds i8, ptr %3, i64 17
  %9 = tail call noundef i64 @_ZN33FastUnorderedElapsedCounterSource3nowEv() #11
  store i64 %9, ptr %3, align 8
  store i8 1, ptr %8, align 1
  store i8 1, ptr %7, align 2
  %10 = tail call noundef i32 @_ZN4GCId7currentEv() #11
  %11 = getelementptr inbounds i8, ptr %3, i64 20
  store i32 %10, ptr %11, align 4
  %12 = getelementptr inbounds i8, ptr %1, i64 32
  %13 = load i32, ptr %12, align 8, !noalias !6
  %14 = zext i32 %13 to i64
  %15 = getelementptr inbounds i8, ptr %1, i64 8
  %16 = getelementptr inbounds i8, ptr %1, i64 24
  %17 = load i64, ptr %16, align 8, !noalias !6
  %18 = shl i64 %17, 3
  %19 = getelementptr inbounds i8, ptr %3, i64 24
  store i64 %14, ptr %19, align 8
  %.sroa.2.0..sroa_idx = getelementptr inbounds i8, ptr %3, i64 32
  %20 = load <2 x i64>, ptr %15, align 8, !noalias !6
  %21 = shl <2 x i64> %20, <i64 3, i64 3>
  store <2 x i64> %21, ptr %.sroa.2.0..sroa_idx, align 8
  %.sroa.4.0..sroa_idx = getelementptr inbounds i8, ptr %3, i64 48
  store i64 %18, ptr %.sroa.4.0..sroa_idx, align 8
  %22 = getelementptr inbounds i8, ptr %1, i64 40
  %23 = load i64, ptr %22, align 8
  %24 = getelementptr inbounds i8, ptr %3, i64 56
  store i64 %23, ptr %24, align 8
  call void @_ZN8JfrEventI20EventPromotionFailedE6commitEv(ptr noundef nonnull align 8 dereferenceable(19) %3)
  br label %_ZN8JfrEventI20EventPromotionFailedE13should_commitEv.exit

_ZN8JfrEventI20EventPromotionFailedE13should_commitEv.exit: ; preds = %2, %6
  ret void
}